; Function Attrs: mustprogress nounwind uwtable
define dso_local void @_ZNK5clang13FullSourceLoc18getModuleImportLocEv(ptr dead_on_unwind noalias nocapture writable writeonly sret(%"struct.std::pair.82") align 8 %0, ptr nocapture noundef nonnull readonly align 8 dereferenceable(16) %1) local_unnamed_addr #0 align 2 {
  %3 = alloca %"struct.std::pair.84", align 8
  %4 = load i32, ptr %1, align 8
  %.not = icmp eq i32 %4, 0
  br i1 %.not, label %5, label %7

5:                                                ; preds = %2
  %.sroa.3.0..sroa_idx = getelementptr inbounds i8, ptr %0, i64 4
  %6 = getelementptr inbounds nuw i8, ptr %0, i64 16
  tail call void @llvm.memset.p0.i64(ptr noundef nonnull align 8 dereferenceable(16) %6, i8 0, i64 16, i1 false)
  store i32 0, ptr %.sroa.3.0..sroa_idx, align 4
  br label %13

7:                                                ; preds = %2
  %8 = getelementptr inbounds nuw i8, ptr %1, i64 8
  %9 = load ptr, ptr %8, align 8
  call void @_ZNK5clang13SourceManager18getModuleImportLocENS_14SourceLocationE(ptr dead_on_unwind nonnull writable sret(%"struct.std::pair.84") align 8 %3, ptr noundef nonnull align 8 dereferenceable(696) %9, i32 %4)
  %.sroa.0.0.copyload = load i32, ptr %3, align 8
  %10 = load ptr, ptr %8, align 8
  %11 = getelementptr inbounds nuw i8, ptr %3, i64 8
  %12 = getelementptr inbounds nuw i8, ptr %0, i64 16
  call void @llvm.memcpy.p0.p0.i64(ptr noundef nonnull align 8 dereferenceable(16) %12, ptr noundef nonnull align 8 dereferenceable(16) %11, i64 16, i1 false)
  br label %13

13:                                               ; preds = %7, %5
  %.sroa.0.0.copyload.sink = phi i32 [ 0, %5 ], [ %.sroa.0.0.copyload, %7 ]
  %.sink = phi ptr [ null, %5 ], [ %10, %7 ]
  store i32 %.sroa.0.0.copyload.sink, ptr %0, align 8
  %14 = getelementptr inbounds i8, ptr %0, i64 8
  store ptr %.sink, ptr %14, align 8
  ret void
}